target datalayout = "e-m:e-p270:32:32-p271:32:32-p272:64:64-i64:64-i128:128-f80:128-n8:16:32:64-S128"
target triple = "x86_64-pc-linux-gnu"

%struct.iseq_link_anchor = type { %struct.iseq_link_element, ptr }
%struct.iseq_link_element = type { i32, ptr, ptr }
%struct.pm_scope_node = type { %struct.pm_node, ptr, ptr, ptr, ptr, %struct.pm_constant_id_list_t, ptr, ptr, ptr, ptr, i32, ptr, ptr, i32, ptr }
%struct.pm_node = type { i16, i16, i32, %struct.pm_location_t }
%struct.pm_location_t = type { ptr, ptr }
%struct.pm_constant_id_list_t = type { i64, i64, ptr }
%struct.pm_node_location_t = type { i32, i32 }
%struct.pm_parser = type { i32, i32, i32, i32, i32, i32, i32, %struct.anon.23, ptr, ptr, %struct.pm_token_t, %struct.pm_token_t, ptr, ptr, %struct.pm_list_t, %struct.pm_list_t, %struct.pm_location_t, %struct.pm_list_t, %struct.pm_list_t, ptr, ptr, ptr, ptr, ptr, ptr, ptr, %struct.pm_string_t, %struct.pm_constant_pool_t, %struct.pm_newline_list_t, i16, %struct.pm_string_t, i32, ptr, ptr, i32, i8, i8, i8, i8, i8, i8, i8, i8, i8, i8, i8, i8, i8 }
%struct.anon.23 = type { ptr, [4 x %struct.pm_lex_mode], i64 }
%struct.pm_lex_mode = type { i32, %union.anon.24, ptr }
%union.anon.24 = type { %struct.anon.28 }
%struct.anon.28 = type { %struct.pm_heredoc_lex_mode_t, ptr, ptr, i8 }
%struct.pm_heredoc_lex_mode_t = type { ptr, i64, i32, i32 }
%struct.pm_token_t = type { i32, ptr, ptr }
%struct.pm_list_t = type { i64, ptr, ptr }
%struct.pm_constant_pool_t = type { ptr, ptr, i32, i32 }
%struct.pm_newline_list_t = type { ptr, i64, i64, ptr }
%struct.pm_string_t = type { ptr, i64, i32 }
%struct.pm_constant_path_node = type { %struct.pm_node, ptr, i32, %struct.pm_location_t, %struct.pm_location_t }
%struct.pm_constant_path_operator_write_node = type { %struct.pm_node, ptr, %struct.pm_location_t, ptr, i32 }

@rb_cObject = external global i64, align 8
@.str.34 = private unnamed_addr constant [4 x i8] c"add\00", align 1
@.str.266 = private unnamed_addr constant [29 x i8] c"constant_id out of range: %u\00", align 1

; Function Attrs: nounwind sspstrong uwtable
define internal void @verify_list(ptr noundef %0, ptr noundef %1) #0 {
  %3 = alloca ptr, align 8
  %4 = alloca ptr, align 8
  store ptr %0, ptr %3, align 8, !tbaa !91
  store ptr %1, ptr %4, align 8, !tbaa !37
  ret void
}

; Function Attrs: nounwind sspstrong uwtable
define internal void @ADD_ELEM(ptr noundef %0, ptr noundef %1) #0 {
  %3 = alloca ptr, align 8
  %4 = alloca ptr, align 8
  store ptr %0, ptr %3, align 8, !tbaa !37
  store ptr %1, ptr %4, align 8, !tbaa !39
  %5 = load ptr, ptr %3, align 8, !tbaa !37
  %6 = getelementptr inbounds nuw %struct.iseq_link_anchor, ptr %5, i32 0, i32 1
  %7 = load ptr, ptr %6, align 8, !tbaa !20
  %8 = load ptr, ptr %4, align 8, !tbaa !39
  %9 = getelementptr inbounds nuw %struct.iseq_link_element, ptr %8, i32 0, i32 2
  store ptr %7, ptr %9, align 8, !tbaa !40
  %10 = load ptr, ptr %4, align 8, !tbaa !39
  %11 = load ptr, ptr %3, align 8, !tbaa !37
  %12 = getelementptr inbounds nuw %struct.iseq_link_anchor, ptr %11, i32 0, i32 1
  %13 = load ptr, ptr %12, align 8, !tbaa !20
  %14 = getelementptr inbounds nuw %struct.iseq_link_element, ptr %13, i32 0, i32 1
  store ptr %10, ptr %14, align 8, !tbaa !22
  %15 = load ptr, ptr %4, align 8, !tbaa !39
  %16 = load ptr, ptr %3, align 8, !tbaa !37
  %17 = getelementptr inbounds nuw %struct.iseq_link_anchor, ptr %16, i32 0, i32 1
  store ptr %15, ptr %17, align 8, !tbaa !20
  %18 = load ptr, ptr %3, align 8, !tbaa !37
  call void @verify_list(ptr noundef @.str.34, ptr noundef %18)
  ret void
}

; Function Attrs: nounwind sspstrong uwtable
define internal i64 @pm_constant_id_lookup(ptr noundef %0, i32 noundef %1) #0 {
  %3 = alloca ptr, align 8
  %4 = alloca i32, align 4
  store ptr %0, ptr %3, align 8, !tbaa !292
  store i32 %1, ptr %4, align 4, !tbaa !41
  %5 = load i32, ptr %4, align 4, !tbaa !41
  %6 = icmp ult i32 %5, 1
  br i1 %6, label %16, label %7

7:                                                ; preds = %2
  %8 = load i32, ptr %4, align 4, !tbaa !41
  %9 = load ptr, ptr %3, align 8, !tbaa !292
  %10 = getelementptr inbounds nuw %struct.pm_scope_node, ptr %9, i32 0, i32 6
  %11 = load ptr, ptr %10, align 8, !tbaa !307
  %12 = getelementptr inbounds nuw %struct.pm_parser, ptr %11, i32 0, i32 27
  %13 = getelementptr inbounds nuw %struct.pm_constant_pool_t, ptr %12, i32 0, i32 2
  %14 = load i32, ptr %13, align 8, !tbaa !758
  %15 = icmp ugt i32 %8, %14
  br i1 %15, label %16, label %18

16:                                               ; preds = %7, %2
  %17 = load i32, ptr %4, align 4, !tbaa !41
  call void (ptr, ...) @rb_bug(ptr noundef @.str.266, i32 noundef %17) #37
  unreachable

18:                                               ; preds = %7
  %19 = load ptr, ptr %3, align 8, !tbaa !292
  %20 = getelementptr inbounds nuw %struct.pm_scope_node, ptr %19, i32 0, i32 11
  %21 = load ptr, ptr %20, align 8, !tbaa !310
  %22 = load i32, ptr %4, align 4, !tbaa !41
  %23 = sub i32 %22, 1
  %24 = zext i32 %23 to i64
  %25 = getelementptr i64, ptr %21, i64 %24
  %26 = load i64, ptr %25, align 8, !tbaa !7
  ret i64 %26
}

; Function Attrs: nounwind sspstrong uwtable
define internal void @pm_compile_constant_path_operator_write_node(ptr noundef %0, ptr noundef %1, i16 noundef zeroext %2, ptr noundef %3, ptr noundef %4, i1 noundef zeroext %5, ptr noundef %6) #0 {
  %8 = alloca ptr, align 8
  %9 = alloca ptr, align 8
  %10 = alloca i16, align 2
  %11 = alloca ptr, align 8
  %12 = alloca ptr, align 8
  %13 = alloca i8, align 1
  %14 = alloca ptr, align 8
  %15 = alloca %struct.pm_node_location_t, align 4
  %16 = alloca ptr, align 8
  %17 = alloca i64, align 8
  %18 = alloca i64, align 8
  store ptr %0, ptr %8, align 8, !tbaa !11
  store ptr %1, ptr %9, align 8, !tbaa !476
  store i16 %2, ptr %10, align 2, !tbaa !172
  store ptr %3, ptr %11, align 8, !tbaa !152
  store ptr %4, ptr %12, align 8, !tbaa !37
  %19 = zext i1 %5 to i8
  store i8 %19, ptr %13, align 1, !tbaa !109
  store ptr %6, ptr %14, align 8, !tbaa !292
  call void @llvm.lifetime.start.p0(i64 8, ptr %15) #31
  %20 = load ptr, ptr %11, align 8, !tbaa !152
  call void @llvm.memcpy.p0.p0.i64(ptr align 4 %15, ptr align 4 %20, i64 8, i1 false), !tbaa.struct !1416
  call void @llvm.lifetime.start.p0(i64 8, ptr %16) #31
  %21 = load ptr, ptr %9, align 8, !tbaa !476
  %22 = getelementptr inbounds nuw %struct.pm_constant_path_operator_write_node, ptr %21, i32 0, i32 1
  %23 = load ptr, ptr %22, align 8, !tbaa !1480
  store ptr %23, ptr %16, align 8, !tbaa !1471
  call void @llvm.lifetime.start.p0(i64 8, ptr %17) #31
  %24 = load ptr, ptr %14, align 8, !tbaa !292
  %25 = load ptr, ptr %9, align 8, !tbaa !476
  %26 = getelementptr inbounds nuw %struct.pm_constant_path_operator_write_node, ptr %25, i32 0, i32 4
  %27 = load i32, ptr %26, align 8, !tbaa !1482
  %28 = call i64 @pm_constant_id_lookup(ptr noundef %24, i32 noundef %27)
  store i64 %28, ptr %17, align 8, !tbaa !7
  call void @llvm.lifetime.start.p0(i64 8, ptr %18) #31
  %29 = load ptr, ptr %14, align 8, !tbaa !292
  %30 = load ptr, ptr %16, align 8, !tbaa !1471
  %31 = getelementptr inbounds nuw %struct.pm_constant_path_node, ptr %30, i32 0, i32 2
  %32 = load i32, ptr %31, align 8, !tbaa !1473
  %33 = call i64 @pm_constant_id_lookup(ptr noundef %29, i32 noundef %32)
  %34 = call i64 @rb_id2sym(i64 noundef %33)
  store i64 %34, ptr %18, align 8, !tbaa !7
  %35 = load ptr, ptr %16, align 8, !tbaa !1471
  %36 = getelementptr inbounds nuw %struct.pm_constant_path_node, ptr %35, i32 0, i32 1
  %37 = load ptr, ptr %36, align 8, !tbaa !1469
  %38 = icmp ne ptr %37, null
  br i1 %38, label %39, label %46

39:                                               ; preds = %7
  %40 = load ptr, ptr %8, align 8, !tbaa !11
  %41 = load ptr, ptr %16, align 8, !tbaa !1471
  %42 = getelementptr inbounds nuw %struct.pm_constant_path_node, ptr %41, i32 0, i32 1
  %43 = load ptr, ptr %42, align 8, !tbaa !1469
  %44 = load ptr, ptr %12, align 8, !tbaa !37
  %45 = load ptr, ptr %14, align 8, !tbaa !292
  call void @pm_compile_node(ptr noundef %40, ptr noundef %43, ptr noundef %44, i1 noundef zeroext false, ptr noundef %45)
  br label %55

46:                                               ; preds = %7
  %47 = load ptr, ptr %12, align 8, !tbaa !37
  %48 = load ptr, ptr %8, align 8, !tbaa !11
  %49 = getelementptr inbounds nuw %struct.pm_node_location_t, ptr %15, i32 0, i32 0
  %50 = load i32, ptr %49, align 4, !tbaa !393
  %51 = getelementptr inbounds nuw %struct.pm_node_location_t, ptr %15, i32 0, i32 1
  %52 = load i32, ptr %51, align 4, !tbaa !396
  %53 = load i64, ptr @rb_cObject, align 8, !tbaa !7
  %54 = call ptr (ptr, i32, i32, i32, i32, ...) @new_insn_body(ptr noundef %48, i32 noundef %50, i32 noundef %52, i32 noundef 19, i32 noundef 1, i64 noundef %53)
  call void @ADD_ELEM(ptr noundef %47, ptr noundef %54)
  br label %55

55:                                               ; preds = %46, %39
  %56 = load ptr, ptr %12, align 8, !tbaa !37
  %57 = load ptr, ptr %8, align 8, !tbaa !11
  %58 = getelementptr inbounds nuw %struct.pm_node_location_t, ptr %15, i32 0, i32 0
  %59 = load i32, ptr %58, align 4, !tbaa !393
  %60 = getelementptr inbounds nuw %struct.pm_node_location_t, ptr %15, i32 0, i32 1
  %61 = load i32, ptr %60, align 4, !tbaa !396
  %62 = call ptr (ptr, i32, i32, i32, i32, ...) @new_insn_body(ptr noundef %57, i32 noundef %59, i32 noundef %61, i32 noundef 40, i32 noundef 0)
  call void @ADD_ELEM(ptr noundef %56, ptr noundef %62)
  %63 = load ptr, ptr %12, align 8, !tbaa !37
  %64 = load ptr, ptr %8, align 8, !tbaa !11
  %65 = getelementptr inbounds nuw %struct.pm_node_location_t, ptr %15, i32 0, i32 0
  %66 = load i32, ptr %65, align 4, !tbaa !393
  %67 = getelementptr inbounds nuw %struct.pm_node_location_t, ptr %15, i32 0, i32 1
  %68 = load i32, ptr %67, align 4, !tbaa !396
  %69 = call ptr (ptr, i32, i32, i32, i32, ...) @new_insn_body(ptr noundef %64, i32 noundef %66, i32 noundef %68, i32 noundef 19, i32 noundef 1, i64 noundef 20)
  call void @ADD_ELEM(ptr noundef %63, ptr noundef %69)
  %70 = load ptr, ptr %12, align 8, !tbaa !37
  %71 = load ptr, ptr %8, align 8, !tbaa !11
  %72 = getelementptr inbounds nuw %struct.pm_node_location_t, ptr %15, i32 0, i32 0
  %73 = load i32, ptr %72, align 4, !tbaa !393
  %74 = getelementptr inbounds nuw %struct.pm_node_location_t, ptr %15, i32 0, i32 1
  %75 = load i32, ptr %74, align 4, !tbaa !396
  %76 = load i64, ptr %18, align 8, !tbaa !7
  %77 = call ptr (ptr, i32, i32, i32, i32, ...) @new_insn_body(ptr noundef %71, i32 noundef %73, i32 noundef %75, i32 noundef 13, i32 noundef 1, i64 noundef %76)
  call void @ADD_ELEM(ptr noundef %70, ptr noundef %77)
  %78 = load i16, ptr %10, align 2, !tbaa !172
  %79 = zext i16 %78 to i32
  %80 = icmp ne i32 %79, 0
  br i1 %80, label %81, label %94

81:                                               ; preds = %55
  %82 = load ptr, ptr %8, align 8, !tbaa !11
  %83 = load ptr, ptr %9, align 8, !tbaa !476
  %84 = getelementptr inbounds nuw %struct.pm_constant_path_operator_write_node, ptr %83, i32 0, i32 3
  %85 = load ptr, ptr %84, align 8, !tbaa !1483
  %86 = load i16, ptr %10, align 2, !tbaa !172
  %87 = load ptr, ptr %9, align 8, !tbaa !476
  %88 = getelementptr inbounds nuw %struct.pm_constant_path_operator_write_node, ptr %87, i32 0, i32 1
  %89 = load ptr, ptr %88, align 8, !tbaa !1480
  %90 = load ptr, ptr %14, align 8, !tbaa !292
  %91 = call i64 @pm_constant_path_path(ptr noundef %89, ptr noundef %90)
  %92 = load ptr, ptr %12, align 8, !tbaa !37
  %93 = load ptr, ptr %14, align 8, !tbaa !292
  call void @pm_compile_shareable_constant_value(ptr noundef %82, ptr noundef %85, i16 noundef zeroext %86, i64 noundef %91, ptr noundef %92, ptr noundef %93, i1 noundef zeroext true)
  br label %101

94:                                               ; preds = %55
  %95 = load ptr, ptr %8, align 8, !tbaa !11
  %96 = load ptr, ptr %9, align 8, !tbaa !476
  %97 = getelementptr inbounds nuw %struct.pm_constant_path_operator_write_node, ptr %96, i32 0, i32 3
  %98 = load ptr, ptr %97, align 8, !tbaa !1483
  %99 = load ptr, ptr %12, align 8, !tbaa !37
  %100 = load ptr, ptr %14, align 8, !tbaa !292
  call void @pm_compile_node(ptr noundef %95, ptr noundef %98, ptr noundef %99, i1 noundef zeroext false, ptr noundef %100)
  br label %101

101:                                              ; preds = %94, %81
  %102 = load ptr, ptr %12, align 8, !tbaa !37
  %103 = load ptr, ptr %8, align 8, !tbaa !11
  %104 = getelementptr inbounds nuw %struct.pm_node_location_t, ptr %15, i32 0, i32 0
  %105 = load i32, ptr %104, align 4, !tbaa !393
  %106 = getelementptr inbounds nuw %struct.pm_node_location_t, ptr %15, i32 0, i32 1
  %107 = load i32, ptr %106, align 4, !tbaa !396
  %108 = load i64, ptr %17, align 8, !tbaa !7
  %109 = call ptr @new_insn_send(ptr noundef %103, i32 noundef %105, i32 noundef %107, i64 noundef %108, i64 noundef 3, ptr noundef null, i64 noundef 9, ptr noundef null)
  call void @ADD_ELEM(ptr noundef %102, ptr noundef %109)
  %110 = load ptr, ptr %12, align 8, !tbaa !37
  %111 = load ptr, ptr %8, align 8, !tbaa !11
  %112 = getelementptr inbounds nuw %struct.pm_node_location_t, ptr %15, i32 0, i32 0
  %113 = load i32, ptr %112, align 4, !tbaa !393
  %114 = getelementptr inbounds nuw %struct.pm_node_location_t, ptr %15, i32 0, i32 1
  %115 = load i32, ptr %114, align 4, !tbaa !396
  %116 = call ptr (ptr, i32, i32, i32, i32, ...) @new_insn_body(ptr noundef %111, i32 noundef %113, i32 noundef %115, i32 noundef 42, i32 noundef 0)
  call void @ADD_ELEM(ptr noundef %110, ptr noundef %116)
  %117 = load i8, ptr %13, align 1, !tbaa !109, !range !54, !noundef !55
  %118 = trunc i8 %117 to i1
  br i1 %118, label %134, label %119

119:                                              ; preds = %101
  %120 = load ptr, ptr %12, align 8, !tbaa !37
  %121 = load ptr, ptr %8, align 8, !tbaa !11
  %122 = getelementptr inbounds nuw %struct.pm_node_location_t, ptr %15, i32 0, i32 0
  %123 = load i32, ptr %122, align 4, !tbaa !393
  %124 = getelementptr inbounds nuw %struct.pm_node_location_t, ptr %15, i32 0, i32 1
  %125 = load i32, ptr %124, align 4, !tbaa !396
  %126 = call ptr (ptr, i32, i32, i32, i32, ...) @new_insn_body(ptr noundef %121, i32 noundef %123, i32 noundef %125, i32 noundef 44, i32 noundef 1, i64 noundef 3)
  call void @ADD_ELEM(ptr noundef %120, ptr noundef %126)
  %127 = load ptr, ptr %12, align 8, !tbaa !37
  %128 = load ptr, ptr %8, align 8, !tbaa !11
  %129 = getelementptr inbounds nuw %struct.pm_node_location_t, ptr %15, i32 0, i32 0
  %130 = load i32, ptr %129, align 4, !tbaa !393
  %131 = getelementptr inbounds nuw %struct.pm_node_location_t, ptr %15, i32 0, i32 1
  %132 = load i32, ptr %131, align 4, !tbaa !396
  %133 = call ptr (ptr, i32, i32, i32, i32, ...) @new_insn_body(ptr noundef %128, i32 noundef %130, i32 noundef %132, i32 noundef 42, i32 noundef 0)
  call void @ADD_ELEM(ptr noundef %127, ptr noundef %133)
  br label %134

134:                                              ; preds = %119, %101
  %135 = load ptr, ptr %12, align 8, !tbaa !37
  %136 = load ptr, ptr %8, align 8, !tbaa !11
  %137 = getelementptr inbounds nuw %struct.pm_node_location_t, ptr %15, i32 0, i32 0
  %138 = load i32, ptr %137, align 4, !tbaa !393
  %139 = getelementptr inbounds nuw %struct.pm_node_location_t, ptr %15, i32 0, i32 1
  %140 = load i32, ptr %139, align 4, !tbaa !396
  %141 = load i64, ptr %18, align 8, !tbaa !7
  %142 = call ptr (ptr, i32, i32, i32, i32, ...) @new_insn_body(ptr noundef %136, i32 noundef %138, i32 noundef %140, i32 noundef 14, i32 noundef 1, i64 noundef %141)
  call void @ADD_ELEM(ptr noundef %135, ptr noundef %142)
  call void @llvm.lifetime.end.p0(i64 8, ptr %18) #31
  call void @llvm.lifetime.end.p0(i64 8, ptr %17) #31
  call void @llvm.lifetime.end.p0(i64 8, ptr %16) #31
  call void @llvm.lifetime.end.p0(i64 8, ptr %15) #31
  ret void
}