; Function Attrs: nounwind sspstrong uwtable
define internal fastcc void @pm_compile_constant_path_operator_write_node(ptr noundef %0, ptr noundef readonly captures(none) %1, i16 noundef zeroext range(i16 0, 29) %2, i32 %.0.val, i32 %.4.val, ptr noundef nonnull %3, i1 noundef zeroext %4, ptr noundef %5) unnamed_addr #1 {
  %7 = getelementptr inbounds nuw i8, ptr %1, i64 24
  %8 = load ptr, ptr %7, align 8, !tbaa !1211
  %9 = getelementptr inbounds nuw i8, ptr %1, i64 56
  %10 = load i32, ptr %9, align 8, !tbaa !1213
  %11 = icmp eq i32 %10, 0
  br i1 %11, label %18, label %12

12:                                               ; preds = %6
  %13 = getelementptr inbounds nuw i8, ptr %5, i64 80
  %14 = load ptr, ptr %13, align 8, !tbaa !407
  %15 = getelementptr inbounds nuw i8, ptr %14, i64 592
  %16 = load i32, ptr %15, align 8, !tbaa !712
  %17 = icmp ugt i32 %10, %16
  br i1 %17, label %18, label %pm_constant_id_lookup.exit

18:                                               ; preds = %12, %6
  tail call void (ptr, ...) @rb_bug(ptr noundef nonnull @.str.266, i32 noundef %10) #39
  unreachable

pm_constant_id_lookup.exit:                       ; preds = %12
  %19 = getelementptr inbounds nuw i8, ptr %5, i64 120
  %20 = load ptr, ptr %19, align 8, !tbaa !410
  %21 = add i32 %10, -1
  %22 = zext i32 %21 to i64
  %23 = getelementptr i64, ptr %20, i64 %22
  %24 = load i64, ptr %23, align 8, !tbaa !37
  %25 = getelementptr inbounds nuw i8, ptr %8, i64 32
  %26 = load i32, ptr %25, align 8, !tbaa !1203
  %27 = add i32 %26, -1
  %or.cond.not = icmp ult i32 %27, %16
  br i1 %or.cond.not, label %pm_constant_id_lookup.exit61, label %28

28:                                               ; preds = %pm_constant_id_lookup.exit
  tail call void (ptr, ...) @rb_bug(ptr noundef nonnull @.str.266, i32 noundef %26) #39
  unreachable

pm_constant_id_lookup.exit61:                     ; preds = %pm_constant_id_lookup.exit
  %29 = zext i32 %27 to i64
  %30 = getelementptr i64, ptr %20, i64 %29
  %31 = load i64, ptr %30, align 8, !tbaa !37
  %32 = tail call i64 @rb_id2sym(i64 noundef %31) #38
  %33 = getelementptr inbounds nuw i8, ptr %8, i64 24
  %34 = load ptr, ptr %33, align 8, !tbaa !1201
  %.not = icmp eq ptr %34, null
  br i1 %.not, label %36, label %35

35:                                               ; preds = %pm_constant_id_lookup.exit61
  tail call fastcc void @pm_compile_node(ptr noundef %0, ptr noundef nonnull %34, ptr noundef %3, i1 noundef zeroext false, ptr noundef nonnull %5)
  br label %43

36:                                               ; preds = %pm_constant_id_lookup.exit61
  %37 = load i64, ptr @rb_cObject, align 8, !tbaa !37
  %38 = tail call ptr (ptr, i32, i32, i32, i32, ...) @new_insn_body(ptr noundef %0, i32 noundef %.0.val, i32 noundef %.4.val, i32 noundef 19, i32 noundef 1, i64 noundef %37)
  %39 = getelementptr inbounds nuw i8, ptr %3, i64 24
  %40 = load ptr, ptr %39, align 8, !tbaa !7
  %41 = getelementptr inbounds nuw i8, ptr %38, i64 16
  store ptr %40, ptr %41, align 8, !tbaa !35
  %42 = getelementptr inbounds nuw i8, ptr %40, i64 8
  store ptr %38, ptr %42, align 8, !tbaa !36
  store ptr %38, ptr %39, align 8, !tbaa !7
  br label %43

43:                                               ; preds = %36, %35
  %44 = tail call fastcc noundef ptr @new_insn_core(ptr noundef %0, i32 noundef %.0.val, i32 noundef %.4.val, i32 noundef 40, i32 noundef 0, ptr noundef null)
  %45 = getelementptr inbounds nuw i8, ptr %3, i64 24
  %46 = load ptr, ptr %45, align 8, !tbaa !7
  %47 = getelementptr inbounds nuw i8, ptr %44, i64 16
  store ptr %46, ptr %47, align 8, !tbaa !35
  %48 = getelementptr inbounds nuw i8, ptr %46, i64 8
  store ptr %44, ptr %48, align 8, !tbaa !36
  store ptr %44, ptr %45, align 8, !tbaa !7
  %49 = tail call ptr (ptr, i32, i32, i32, i32, ...) @new_insn_body(ptr noundef %0, i32 noundef %.0.val, i32 noundef %.4.val, i32 noundef 19, i32 noundef 1, i64 noundef 20)
  %50 = load ptr, ptr %45, align 8, !tbaa !7
  %51 = getelementptr inbounds nuw i8, ptr %49, i64 16
  store ptr %50, ptr %51, align 8, !tbaa !35
  %52 = getelementptr inbounds nuw i8, ptr %50, i64 8
  store ptr %49, ptr %52, align 8, !tbaa !36
  store ptr %49, ptr %45, align 8, !tbaa !7
  %53 = tail call ptr (ptr, i32, i32, i32, i32, ...) @new_insn_body(ptr noundef %0, i32 noundef %.0.val, i32 noundef %.4.val, i32 noundef 13, i32 noundef 1, i64 noundef %32)
  %54 = load ptr, ptr %45, align 8, !tbaa !7
  %55 = getelementptr inbounds nuw i8, ptr %53, i64 16
  store ptr %54, ptr %55, align 8, !tbaa !35
  %56 = getelementptr inbounds nuw i8, ptr %54, i64 8
  store ptr %53, ptr %56, align 8, !tbaa !36
  store ptr %53, ptr %45, align 8, !tbaa !7
  %.not60 = icmp eq i16 %2, 0
  %57 = getelementptr inbounds nuw i8, ptr %1, i64 48
  %58 = load ptr, ptr %57, align 8, !tbaa !1214
  br i1 %.not60, label %62, label %59

59:                                               ; preds = %43
  %60 = load ptr, ptr %7, align 8, !tbaa !1211
  %61 = tail call fastcc i64 @pm_constant_path_path(ptr noundef %60, ptr noundef nonnull %5)
  tail call fastcc void @pm_compile_shareable_constant_value(ptr noundef %0, ptr noundef %58, i16 noundef zeroext %2, i64 noundef %61, ptr noundef %3, ptr noundef nonnull %5, i1 noundef zeroext true)
  br label %63

62:                                               ; preds = %43
  tail call fastcc void @pm_compile_node(ptr noundef %0, ptr noundef %58, ptr noundef %3, i1 noundef zeroext false, ptr noundef nonnull %5)
  br label %63

63:                                               ; preds = %62, %59
  %64 = tail call fastcc ptr @new_insn_send(ptr noundef %0, i32 noundef %.0.val, i32 noundef %.4.val, i64 noundef %24, i64 noundef 3, ptr noundef null, i64 noundef 9, ptr noundef null)
  %65 = load ptr, ptr %45, align 8, !tbaa !7
  %66 = getelementptr inbounds nuw i8, ptr %64, i64 16
  store ptr %65, ptr %66, align 8, !tbaa !35
  %67 = getelementptr inbounds nuw i8, ptr %65, i64 8
  store ptr %64, ptr %67, align 8, !tbaa !36
  store ptr %64, ptr %45, align 8, !tbaa !7
  %68 = tail call fastcc noundef ptr @new_insn_core(ptr noundef %0, i32 noundef %.0.val, i32 noundef %.4.val, i32 noundef 42, i32 noundef 0, ptr noundef null)
  %69 = load ptr, ptr %45, align 8, !tbaa !7
  %70 = getelementptr inbounds nuw i8, ptr %68, i64 16
  store ptr %69, ptr %70, align 8, !tbaa !35
  %71 = getelementptr inbounds nuw i8, ptr %69, i64 8
  store ptr %68, ptr %71, align 8, !tbaa !36
  store ptr %68, ptr %45, align 8, !tbaa !7
  br i1 %4, label %81, label %72

72:                                               ; preds = %63
  %73 = tail call ptr (ptr, i32, i32, i32, i32, ...) @new_insn_body(ptr noundef %0, i32 noundef %.0.val, i32 noundef %.4.val, i32 noundef 44, i32 noundef 1, i64 noundef 3)
  %74 = load ptr, ptr %45, align 8, !tbaa !7
  %75 = getelementptr inbounds nuw i8, ptr %73, i64 16
  store ptr %74, ptr %75, align 8, !tbaa !35
  %76 = getelementptr inbounds nuw i8, ptr %74, i64 8
  store ptr %73, ptr %76, align 8, !tbaa !36
  store ptr %73, ptr %45, align 8, !tbaa !7
  %77 = tail call fastcc noundef ptr @new_insn_core(ptr noundef %0, i32 noundef %.0.val, i32 noundef %.4.val, i32 noundef 42, i32 noundef 0, ptr noundef null)
  %78 = load ptr, ptr %45, align 8, !tbaa !7
  %79 = getelementptr inbounds nuw i8, ptr %77, i64 16
  store ptr %78, ptr %79, align 8, !tbaa !35
  %80 = getelementptr inbounds nuw i8, ptr %78, i64 8
  store ptr %77, ptr %80, align 8, !tbaa !36
  store ptr %77, ptr %45, align 8, !tbaa !7
  br label %81

81:                                               ; preds = %72, %63
  %82 = tail call ptr (ptr, i32, i32, i32, i32, ...) @new_insn_body(ptr noundef %0, i32 noundef %.0.val, i32 noundef %.4.val, i32 noundef 14, i32 noundef 1, i64 noundef %32)
  %83 = load ptr, ptr %45, align 8, !tbaa !7
  %84 = getelementptr inbounds nuw i8, ptr %82, i64 16
  store ptr %83, ptr %84, align 8, !tbaa !35
  %85 = getelementptr inbounds nuw i8, ptr %83, i64 8
  store ptr %82, ptr %85, align 8, !tbaa !36
  store ptr %82, ptr %45, align 8, !tbaa !7
  ret void
}